; ModuleID = '29/1267.c'
source_filename = "29/1267.c"
target datalayout = "e-m:e-p270:32:32-p271:32:32-p272:64:64-i64:64-f80:128-n8:16:32:64-S128"
target triple = "x86_64-pc-linux-gnu"

@.str = private unnamed_addr constant [3 x i8] c"%d\00", align 1
@.str.1 = private unnamed_addr constant [7 x i8] c"%.3lf\0A\00", align 1

; Function Attrs: noinline nounwind uwtable
define dso_local i32 @main() #0 {
  %1 = alloca i32, align 4
  %2 = alloca i32, align 4
  %3 = alloca [1000 x i32], align 16
  %4 = alloca [1000 x i32], align 16
  %5 = alloca i32, align 4
  %6 = alloca i32, align 4
  %7 = alloca [1000 x double], align 16
  %8 = alloca [1000 x double], align 16
  store i32 0, i32* %1, align 4
  %9 = call i32 (i8*, ...) @__isoc99_scanf(i8* getelementptr inbounds ([3 x i8], [3 x i8]* @.str, i64 0, i64 0), i32* %2)
  store i32 0, i32* %5, align 4
  br label %10

10:                                               ; preds = %48, %0
  %11 = load i32, i32* %5, align 4
  %12 = load i32, i32* %2, align 4
  %13 = icmp slt i32 %11, %12
  br i1 %13, label %14, label %51

14:                                               ; preds = %10
  %15 = load i32, i32* %5, align 4
  %16 = sext i32 %15 to i64
  %17 = getelementptr inbounds [1000 x i32], [1000 x i32]* %3, i64 0, i64 %16
  %18 = call i32 (i8*, ...) @__isoc99_scanf(i8* getelementptr inbounds ([3 x i8], [3 x i8]* @.str, i64 0, i64 0), i32* %17)
  store i32 3, i32* %6, align 4
  br label %19

19:                                               ; preds = %44, %14
  %20 = load i32, i32* %6, align 4
  %21 = load i32, i32* %5, align 4
  %22 = sext i32 %21 to i64
  %23 = getelementptr inbounds [1000 x i32], [1000 x i32]* %3, i64 0, i64 %22
  %24 = load i32, i32* %23, align 4
  %25 = add nsw i32 %24, 1
  %26 = icmp sle i32 %20, %25
  br i1 %26, label %27, label %47

27:                                               ; preds = %19
  %28 = getelementptr inbounds [1000 x i32], [1000 x i32]* %4, i64 0, i64 1
  store i32 1, i32* %28, align 4
  %29 = getelementptr inbounds [1000 x i32], [1000 x i32]* %4, i64 0, i64 2
  store i32 2, i32* %29, align 8
  %30 = load i32, i32* %6, align 4
  %31 = sub nsw i32 %30, 1
  %32 = sext i32 %31 to i64
  %33 = getelementptr inbounds [1000 x i32], [1000 x i32]* %4, i64 0, i64 %32
  %34 = load i32, i32* %33, align 4
  %35 = load i32, i32* %6, align 4
  %36 = sub nsw i32 %35, 2
  %37 = sext i32 %36 to i64
  %38 = getelementptr inbounds [1000 x i32], [1000 x i32]* %4, i64 0, i64 %37
  %39 = load i32, i32* %38, align 4
  %40 = add nsw i32 %34, %39
  %41 = load i32, i32* %6, align 4
  %42 = sext i32 %41 to i64
  %43 = getelementptr inbounds [1000 x i32], [1000 x i32]* %4, i64 0, i64 %42
  store i32 %40, i32* %43, align 4
  br label %44

44:                                               ; preds = %27
  %45 = load i32, i32* %6, align 4
  %46 = add nsw i32 %45, 1
  store i32 %46, i32* %6, align 4
  br label %19

47:                                               ; preds = %19
  br label %48

48:                                               ; preds = %47
  %49 = load i32, i32* %5, align 4
  %50 = add nsw i32 %49, 1
  store i32 %50, i32* %5, align 4
  br label %10

51:                                               ; preds = %10
  store i32 0, i32* %5, align 4
  br label %52

52:                                               ; preds = %85, %51
  %53 = load i32, i32* %5, align 4
  %54 = load i32, i32* %2, align 4
  %55 = icmp sle i32 %53, %54
  br i1 %55, label %56, label %88

56:                                               ; preds = %52
  store i32 1, i32* %6, align 4
  br label %57

57:                                               ; preds = %81, %56
  %58 = load i32, i32* %6, align 4
  %59 = load i32, i32* %5, align 4
  %60 = sext i32 %59 to i64
  %61 = getelementptr inbounds [1000 x i32], [1000 x i32]* %3, i64 0, i64 %60
  %62 = load i32, i32* %61, align 4
  %63 = icmp sle i32 %58, %62
  br i1 %63, label %64, label %84

64:                                               ; preds = %57
  %65 = load i32, i32* %6, align 4
  %66 = add nsw i32 %65, 1
  %67 = sext i32 %66 to i64
  %68 = getelementptr inbounds [1000 x i32], [1000 x i32]* %4, i64 0, i64 %67
  %69 = load i32, i32* %68, align 4
  %70 = sitofp i32 %69 to double
  %71 = fmul double 1.000000e+00, %70
  %72 = load i32, i32* %6, align 4
  %73 = sext i32 %72 to i64
  %74 = getelementptr inbounds [1000 x i32], [1000 x i32]* %4, i64 0, i64 %73
  %75 = load i32, i32* %74, align 4
  %76 = sitofp i32 %75 to double
  %77 = fdiv double %71, %76
  %78 = load i32, i32* %6, align 4
  %79 = sext i32 %78 to i64
  %80 = getelementptr inbounds [1000 x double], [1000 x double]* %7, i64 0, i64 %79
  store double %77, double* %80, align 8
  br label %81

81:                                               ; preds = %64
  %82 = load i32, i32* %6, align 4
  %83 = add nsw i32 %82, 1
  store i32 %83, i32* %6, align 4
  br label %57

84:                                               ; preds = %57
  br label %85

85:                                               ; preds = %84
  %86 = load i32, i32* %5, align 4
  %87 = add nsw i32 %86, 1
  store i32 %87, i32* %5, align 4
  br label %52

88:                                               ; preds = %52
  store i32 0, i32* %5, align 4
  br label %89

89:                                               ; preds = %97, %88
  %90 = load i32, i32* %5, align 4
  %91 = load i32, i32* %2, align 4
  %92 = icmp sle i32 %90, %91
  br i1 %92, label %93, label %100

93:                                               ; preds = %89
  %94 = load i32, i32* %5, align 4
  %95 = sext i32 %94 to i64
  %96 = getelementptr inbounds [1000 x double], [1000 x double]* %8, i64 0, i64 %95
  store double 0.000000e+00, double* %96, align 8
  br label %97

97:                                               ; preds = %93
  %98 = load i32, i32* %5, align 4
  %99 = add nsw i32 %98, 1
  store i32 %99, i32* %5, align 4
  br label %89

100:                                              ; preds = %89
  store i32 0, i32* %5, align 4
  br label %101

101:                                              ; preds = %128, %100
  %102 = load i32, i32* %5, align 4
  %103 = load i32, i32* %2, align 4
  %104 = icmp sle i32 %102, %103
  br i1 %104, label %105, label %131

105:                                              ; preds = %101
  store i32 1, i32* %6, align 4
  br label %106

106:                                              ; preds = %124, %105
  %107 = load i32, i32* %6, align 4
  %108 = load i32, i32* %5, align 4
  %109 = sext i32 %108 to i64
  %110 = getelementptr inbounds [1000 x i32], [1000 x i32]* %3, i64 0, i64 %109
  %111 = load i32, i32* %110, align 4
  %112 = icmp sle i32 %107, %111
  br i1 %112, label %113, label %127

113:                                              ; preds = %106
  %114 = load i32, i32* %6, align 4
  %115 = sext i32 %114 to i64
  %116 = getelementptr inbounds [1000 x double], [1000 x double]* %7, i64 0, i64 %115
  %117 = load double, double* %116, align 8
  %118 = load i32, i32* %5, align 4
  %119 = add nsw i32 %118, 1
  %120 = sext i32 %119 to i64
  %121 = getelementptr inbounds [1000 x double], [1000 x double]* %8, i64 0, i64 %120
  %122 = load double, double* %121, align 8
  %123 = fadd double %122, %117
  store double %123, double* %121, align 8
  br label %124

124:                                              ; preds = %113
  %125 = load i32, i32* %6, align 4
  %126 = add nsw i32 %125, 1
  store i32 %126, i32* %6, align 4
  br label %106

127:                                              ; preds = %106
  br label %128

128:                                              ; preds = %127
  %129 = load i32, i32* %5, align 4
  %130 = add nsw i32 %129, 1
  store i32 %130, i32* %5, align 4
  br label %101

131:                                              ; preds = %101
  store i32 1, i32* %5, align 4
  br label %132

132:                                              ; preds = %142, %131
  %133 = load i32, i32* %5, align 4
  %134 = load i32, i32* %2, align 4
  %135 = icmp sle i32 %133, %134
  br i1 %135, label %136, label %145

136:                                              ; preds = %132
  %137 = load i32, i32* %5, align 4
  %138 = sext i32 %137 to i64
  %139 = getelementptr inbounds [1000 x double], [1000 x double]* %8, i64 0, i64 %138
  %140 = load double, double* %139, align 8
  %141 = call i32 (i8*, ...) @printf(i8* getelementptr inbounds ([7 x i8], [7 x i8]* @.str.1, i64 0, i64 0), double %140)
  br label %142

142:                                              ; preds = %136
  %143 = load i32, i32* %5, align 4
  %144 = add nsw i32 %143, 1
  store i32 %144, i32* %5, align 4
  br label %132

145:                                              ; preds = %132
  ret i32 0
}

declare dso_local i32 @__isoc99_scanf(i8*, ...) #1

declare dso_local i32 @printf(i8*, ...) #1


!llvm.module.flags = !{!0}
!llvm.ident = !{!1}

!0 = !{i32 1, !"wchar_size", i32 4}
!1 = !{!"clang version 10.0.0-4ubuntu1 "}
